; Function Attrs: nounwind uwtable
define internal fastcc void @_jumbleDropSubscriptionStmt(ptr noundef captures(none) %0, ptr noundef nonnull readonly captures(none) %1) unnamed_addr #0 {
  %3 = getelementptr inbounds nuw i8, ptr %1, i64 8
  %4 = load ptr, ptr %3, align 8
  %.not = icmp eq ptr %4, null
  %.pre29 = load ptr, ptr %0, align 8
  br i1 %.not, label %._crit_edge, label %5

._crit_edge:                                      ; preds = %2
  %.phi.trans.insert = getelementptr inbounds nuw i8, ptr %0, i64 8
  %.pre30 = load i64, ptr %.phi.trans.insert, align 8
  br label %20

5:                                                ; preds = %2
  %6 = tail call i64 @strlen(ptr noundef nonnull dereferenceable(1) %4) #8
  %7 = add i64 %6, 1
  %8 = getelementptr inbounds nuw i8, ptr %0, i64 8
  %9 = load i64, ptr %8, align 8
  %.not23.i = icmp eq i64 %7, 0
  br i1 %.not23.i, label %AppendJumble.exit, label %.lr.ph.i

.lr.ph.i:                                         ; preds = %5, %13
  %.026.i = phi ptr [ %18, %13 ], [ %4, %5 ]
  %.02125.i = phi i64 [ %19, %13 ], [ %7, %5 ]
  %.02224.i = phi i64 [ %17, %13 ], [ %9, %5 ]
  %10 = icmp ugt i64 %.02224.i, 1023
  br i1 %10, label %11, label %13

11:                                               ; preds = %.lr.ph.i
  %12 = tail call i64 @hash_bytes_extended(ptr noundef %.pre29, i32 noundef 1024, i64 noundef 0) #9
  store i64 %12, ptr %.pre29, align 1
  br label %13

13:                                               ; preds = %11, %.lr.ph.i
  %.1.i = phi i64 [ 8, %11 ], [ %.02224.i, %.lr.ph.i ]
  %14 = sub nuw nsw i64 1024, %.1.i
  %15 = tail call i64 @llvm.umin.i64(i64 %.02125.i, i64 %14)
  %16 = getelementptr inbounds nuw i8, ptr %.pre29, i64 %.1.i
  tail call void @llvm.memcpy.p0.p0.i64(ptr noundef nonnull align 1 dereferenceable(1) %16, ptr noundef nonnull align 1 dereferenceable(1) %.026.i, i64 %15, i1 false)
  %17 = add nuw nsw i64 %15, %.1.i
  %18 = getelementptr inbounds nuw i8, ptr %.026.i, i64 %15
  %19 = sub i64 %.02125.i, %15
  %.not.i = icmp eq i64 %19, 0
  br i1 %.not.i, label %AppendJumble.exit.loopexit, label %.lr.ph.i, !llvm.loop !7

AppendJumble.exit.loopexit:                       ; preds = %13
  %.pre.pre = load ptr, ptr %0, align 8
  br label %AppendJumble.exit

AppendJumble.exit:                                ; preds = %AppendJumble.exit.loopexit, %5
  %.pre = phi ptr [ %.pre29, %5 ], [ %.pre.pre, %AppendJumble.exit.loopexit ]
  %.022.lcssa.i = phi i64 [ %9, %5 ], [ %17, %AppendJumble.exit.loopexit ]
  store i64 %.022.lcssa.i, ptr %8, align 8
  br label %20

20:                                               ; preds = %._crit_edge, %AppendJumble.exit
  %21 = phi i64 [ %.022.lcssa.i, %AppendJumble.exit ], [ %.pre30, %._crit_edge ]
  %22 = phi ptr [ %.pre, %AppendJumble.exit ], [ %.pre29, %._crit_edge ]
  %23 = getelementptr inbounds nuw i8, ptr %1, i64 16
  %24 = getelementptr inbounds nuw i8, ptr %0, i64 8
  br label %.lr.ph.i9

.lr.ph.i9:                                        ; preds = %28, %20
  %.026.i10 = phi ptr [ %33, %28 ], [ %23, %20 ]
  %.02125.i11 = phi i64 [ %34, %28 ], [ 1, %20 ]
  %.02224.i12 = phi i64 [ %32, %28 ], [ %21, %20 ]
  %25 = icmp ugt i64 %.02224.i12, 1023
  br i1 %25, label %26, label %28

26:                                               ; preds = %.lr.ph.i9
  %27 = tail call i64 @hash_bytes_extended(ptr noundef %22, i32 noundef 1024, i64 noundef 0) #9
  store i64 %27, ptr %22, align 1
  br label %28

28:                                               ; preds = %26, %.lr.ph.i9
  %.1.i13 = phi i64 [ 8, %26 ], [ %.02224.i12, %.lr.ph.i9 ]
  %29 = sub nuw nsw i64 1024, %.1.i13
  %30 = tail call i64 @llvm.umin.i64(i64 %.02125.i11, i64 %29)
  %31 = getelementptr inbounds nuw i8, ptr %22, i64 %.1.i13
  tail call void @llvm.memcpy.p0.p0.i64(ptr noundef nonnull align 1 dereferenceable(1) %31, ptr noundef nonnull align 1 dereferenceable(1) %.026.i10, i64 %30, i1 false)
  %32 = add nuw nsw i64 %30, %.1.i13
  %33 = getelementptr inbounds nuw i8, ptr %.026.i10, i64 %30
  %34 = sub i64 %.02125.i11, %30
  %.not.i14 = icmp eq i64 %34, 0
  br i1 %.not.i14, label %AppendJumble.exit16, label %.lr.ph.i9, !llvm.loop !7

AppendJumble.exit16:                              ; preds = %28
  store i64 %32, ptr %24, align 8
  %35 = getelementptr inbounds nuw i8, ptr %1, i64 20
  %36 = load ptr, ptr %0, align 8
  br label %.lr.ph.i17

.lr.ph.i17:                                       ; preds = %40, %AppendJumble.exit16
  %.026.i18 = phi ptr [ %45, %40 ], [ %35, %AppendJumble.exit16 ]
  %.02125.i19 = phi i64 [ %46, %40 ], [ 4, %AppendJumble.exit16 ]
  %.02224.i20 = phi i64 [ %44, %40 ], [ %32, %AppendJumble.exit16 ]
  %37 = icmp ugt i64 %.02224.i20, 1023
  br i1 %37, label %38, label %40

38:                                               ; preds = %.lr.ph.i17
  %39 = tail call i64 @hash_bytes_extended(ptr noundef %36, i32 noundef 1024, i64 noundef 0) #9
  store i64 %39, ptr %36, align 1
  br label %40

40:                                               ; preds = %38, %.lr.ph.i17
  %.1.i21 = phi i64 [ 8, %38 ], [ %.02224.i20, %.lr.ph.i17 ]
  %41 = sub nuw nsw i64 1024, %.1.i21
  %42 = tail call i64 @llvm.umin.i64(i64 %.02125.i19, i64 %41)
  %43 = getelementptr inbounds nuw i8, ptr %36, i64 %.1.i21
  tail call void @llvm.memcpy.p0.p0.i64(ptr noundef nonnull align 1 dereferenceable(1) %43, ptr noundef nonnull align 1 dereferenceable(1) %.026.i18, i64 %42, i1 false)
  %44 = add nuw nsw i64 %42, %.1.i21
  %45 = getelementptr inbounds nuw i8, ptr %.026.i18, i64 %42
  %46 = sub i64 %.02125.i19, %42
  %.not.i22 = icmp eq i64 %46, 0
  br i1 %.not.i22, label %AppendJumble.exit24, label %.lr.ph.i17, !llvm.loop !7

AppendJumble.exit24:                              ; preds = %40
  store i64 %44, ptr %24, align 8
  ret void
}